; ModuleID = '22/210.c'
source_filename = "22/210.c"
target datalayout = "e-m:e-p270:32:32-p271:32:32-p272:64:64-i64:64-f80:128-n8:16:32:64-S128"
target triple = "x86_64-pc-linux-gnu"

@.str = private unnamed_addr constant [3 x i8] c"No\00", align 1
@.str.1 = private unnamed_addr constant [3 x i8] c"%d\00", align 1

; Function Attrs: noinline nounwind uwtable
define dso_local void @main() #0 {
  %1 = alloca [1201 x i8], align 16
  %2 = alloca i32, align 4
  %3 = alloca i32, align 4
  %4 = alloca [301 x i32], align 16
  %5 = alloca i32, align 4
  %6 = alloca i32, align 4
  %7 = alloca i32, align 4
  %8 = bitcast [301 x i32]* %4 to i8*
  call void @llvm.memset.p0i8.i64(i8* align 16 %8, i8 0, i64 1204, i1 false)
  %9 = getelementptr inbounds [1201 x i8], [1201 x i8]* %1, i64 0, i64 0
  %10 = call i32 (i8*, ...) bitcast (i32 (...)* @gets to i32 (i8*, ...)*)(i8* %9)
  %11 = getelementptr inbounds [1201 x i8], [1201 x i8]* %1, i64 0, i64 0
  %12 = call i64 @strlen(i8* %11) #4
  %13 = trunc i64 %12 to i32
  store i32 %13, i32* %3, align 4
  store i32 0, i32* %5, align 4
  store i32 0, i32* %2, align 4
  br label %14

14:                                               ; preds = %53, %0
  %15 = load i32, i32* %2, align 4
  %16 = load i32, i32* %3, align 4
  %17 = icmp slt i32 %15, %16
  br i1 %17, label %18, label %56

18:                                               ; preds = %14
  %19 = load i32, i32* %2, align 4
  %20 = sext i32 %19 to i64
  %21 = getelementptr inbounds [1201 x i8], [1201 x i8]* %1, i64 0, i64 %20
  %22 = load i8, i8* %21, align 1
  %23 = sext i8 %22 to i32
  %24 = icmp ne i32 %23, 44
  br i1 %24, label %25, label %41

25:                                               ; preds = %18
  %26 = load i32, i32* %5, align 4
  %27 = sext i32 %26 to i64
  %28 = getelementptr inbounds [301 x i32], [301 x i32]* %4, i64 0, i64 %27
  %29 = load i32, i32* %28, align 4
  %30 = mul nsw i32 %29, 10
  %31 = load i32, i32* %2, align 4
  %32 = sext i32 %31 to i64
  %33 = getelementptr inbounds [1201 x i8], [1201 x i8]* %1, i64 0, i64 %32
  %34 = load i8, i8* %33, align 1
  %35 = sext i8 %34 to i32
  %36 = add nsw i32 %30, %35
  %37 = sub nsw i32 %36, 48
  %38 = load i32, i32* %5, align 4
  %39 = sext i32 %38 to i64
  %40 = getelementptr inbounds [301 x i32], [301 x i32]* %4, i64 0, i64 %39
  store i32 %37, i32* %40, align 4
  br label %41

41:                                               ; preds = %25, %18
  %42 = load i32, i32* %2, align 4
  %43 = add nsw i32 %42, 1
  %44 = sext i32 %43 to i64
  %45 = getelementptr inbounds [1201 x i8], [1201 x i8]* %1, i64 0, i64 %44
  %46 = load i8, i8* %45, align 1
  %47 = sext i8 %46 to i32
  %48 = icmp eq i32 %47, 44
  br i1 %48, label %49, label %52

49:                                               ; preds = %41
  %50 = load i32, i32* %5, align 4
  %51 = add nsw i32 %50, 1
  store i32 %51, i32* %5, align 4
  br label %52

52:                                               ; preds = %49, %41
  br label %53

53:                                               ; preds = %52
  %54 = load i32, i32* %2, align 4
  %55 = add nsw i32 %54, 1
  store i32 %55, i32* %2, align 4
  br label %14

56:                                               ; preds = %14
  store i32 -1, i32* %7, align 4
  %57 = getelementptr inbounds [301 x i32], [301 x i32]* %4, i64 0, i64 0
  %58 = load i32, i32* %57, align 16
  store i32 %58, i32* %6, align 4
  store i32 1, i32* %2, align 4
  br label %59

59:                                               ; preds = %96, %56
  %60 = load i32, i32* %2, align 4
  %61 = load i32, i32* %5, align 4
  %62 = icmp sle i32 %60, %61
  br i1 %62, label %63, label %99

63:                                               ; preds = %59
  %64 = load i32, i32* %2, align 4
  %65 = sext i32 %64 to i64
  %66 = getelementptr inbounds [301 x i32], [301 x i32]* %4, i64 0, i64 %65
  %67 = load i32, i32* %66, align 4
  %68 = load i32, i32* %6, align 4
  %69 = icmp sgt i32 %67, %68
  br i1 %69, label %70, label %76

70:                                               ; preds = %63
  %71 = load i32, i32* %6, align 4
  store i32 %71, i32* %7, align 4
  %72 = load i32, i32* %2, align 4
  %73 = sext i32 %72 to i64
  %74 = getelementptr inbounds [301 x i32], [301 x i32]* %4, i64 0, i64 %73
  %75 = load i32, i32* %74, align 4
  store i32 %75, i32* %6, align 4
  br label %76

76:                                               ; preds = %70, %63
  %77 = load i32, i32* %2, align 4
  %78 = sext i32 %77 to i64
  %79 = getelementptr inbounds [301 x i32], [301 x i32]* %4, i64 0, i64 %78
  %80 = load i32, i32* %79, align 4
  %81 = load i32, i32* %7, align 4
  %82 = icmp sgt i32 %80, %81
  br i1 %82, label %83, label %95

83:                                               ; preds = %76
  %84 = load i32, i32* %2, align 4
  %85 = sext i32 %84 to i64
  %86 = getelementptr inbounds [301 x i32], [301 x i32]* %4, i64 0, i64 %85
  %87 = load i32, i32* %86, align 4
  %88 = load i32, i32* %6, align 4
  %89 = icmp slt i32 %87, %88
  br i1 %89, label %90, label %95

90:                                               ; preds = %83
  %91 = load i32, i32* %2, align 4
  %92 = sext i32 %91 to i64
  %93 = getelementptr inbounds [301 x i32], [301 x i32]* %4, i64 0, i64 %92
  %94 = load i32, i32* %93, align 4
  store i32 %94, i32* %7, align 4
  br label %95

95:                                               ; preds = %90, %83, %76
  br label %96

96:                                               ; preds = %95
  %97 = load i32, i32* %2, align 4
  %98 = add nsw i32 %97, 1
  store i32 %98, i32* %2, align 4
  br label %59

99:                                               ; preds = %59
  %100 = load i32, i32* %7, align 4
  %101 = icmp eq i32 %100, -1
  br i1 %101, label %102, label %104

102:                                              ; preds = %99
  %103 = call i32 (i8*, ...) @printf(i8* getelementptr inbounds ([3 x i8], [3 x i8]* @.str, i64 0, i64 0))
  br label %107

104:                                              ; preds = %99
  %105 = load i32, i32* %7, align 4
  %106 = call i32 (i8*, ...) @printf(i8* getelementptr inbounds ([3 x i8], [3 x i8]* @.str.1, i64 0, i64 0), i32 %105)
  br label %107

107:                                              ; preds = %104, %102
  ret void
}

; Function Attrs: argmemonly nounwind willreturn
declare void @llvm.memset.p0i8.i64(i8* nocapture writeonly, i8, i64, i1 immarg) #1

declare dso_local i32 @gets(...) #2

; Function Attrs: nounwind readonly
declare dso_local i64 @strlen(i8*) #3

declare dso_local i32 @printf(i8*, ...) #2


!llvm.module.flags = !{!0}
!llvm.ident = !{!1}

!0 = !{i32 1, !"wchar_size", i32 4}
!1 = !{!"clang version 10.0.0-4ubuntu1 "}
